target datalayout = "e-m:e-p270:32:32-p271:32:32-p272:64:64-i64:64-i128:128-f80:128-n8:16:32:64-S128"
target triple = "x86_64-pc-linux-gnu"

%struct.location = type { i32, i32 }
%struct.block = type { ptr, ptr }
%struct.inst = type { ptr, ptr, i32, %struct.anon, ptr, %struct.location, ptr, ptr, i32, i32, i32, i32, %struct.block, %struct.block, ptr, i32 }
%struct.anon = type { i16, ptr, %struct.jv, ptr }
%struct.jv = type { i8, i8, i16, i32, %union.anon }
%union.anon = type { ptr }

; Function Attrs: nounwind uwtable
define internal void @inst_join(ptr noundef %0, ptr noundef %1) #0 {
  %3 = alloca ptr, align 8
  %4 = alloca ptr, align 8
  store ptr %0, ptr %3, align 8, !tbaa !13
  store ptr %1, ptr %4, align 8, !tbaa !13
  %5 = load ptr, ptr %4, align 8, !tbaa !13
  %6 = load ptr, ptr %3, align 8, !tbaa !13
  %7 = getelementptr inbounds nuw %struct.inst, ptr %6, i32 0, i32 0
  store ptr %5, ptr %7, align 8, !tbaa !28
  %8 = load ptr, ptr %3, align 8, !tbaa !13
  %9 = load ptr, ptr %4, align 8, !tbaa !13
  %10 = getelementptr inbounds nuw %struct.inst, ptr %9, i32 0, i32 1
  store ptr %8, ptr %10, align 8, !tbaa !32
  ret void
}

; Function Attrs: nounwind uwtable
define dso_local void @block_append(ptr noundef %0, ptr %1, ptr %2) #0 {
  %4 = alloca %struct.block, align 8
  %5 = alloca ptr, align 8
  %6 = getelementptr inbounds nuw { ptr, ptr }, ptr %4, i32 0, i32 0
  store ptr %1, ptr %6, align 8
  %7 = getelementptr inbounds nuw { ptr, ptr }, ptr %4, i32 0, i32 1
  store ptr %2, ptr %7, align 8
  store ptr %0, ptr %5, align 8, !tbaa !46
  %8 = getelementptr inbounds nuw %struct.block, ptr %4, i32 0, i32 0
  %9 = load ptr, ptr %8, align 8, !tbaa !4
  %10 = icmp ne ptr %9, null
  br i1 %10, label %11, label %32

11:                                               ; preds = %3
  %12 = load ptr, ptr %5, align 8, !tbaa !46
  %13 = getelementptr inbounds nuw %struct.block, ptr %12, i32 0, i32 1
  %14 = load ptr, ptr %13, align 8, !tbaa !10
  %15 = icmp ne ptr %14, null
  br i1 %15, label %16, label %22

16:                                               ; preds = %11
  %17 = load ptr, ptr %5, align 8, !tbaa !46
  %18 = getelementptr inbounds nuw %struct.block, ptr %17, i32 0, i32 1
  %19 = load ptr, ptr %18, align 8, !tbaa !10
  %20 = getelementptr inbounds nuw %struct.block, ptr %4, i32 0, i32 0
  %21 = load ptr, ptr %20, align 8, !tbaa !4
  call void @inst_join(ptr noundef %19, ptr noundef %21)
  br label %27

22:                                               ; preds = %11
  %23 = getelementptr inbounds nuw %struct.block, ptr %4, i32 0, i32 0
  %24 = load ptr, ptr %23, align 8, !tbaa !4
  %25 = load ptr, ptr %5, align 8, !tbaa !46
  %26 = getelementptr inbounds nuw %struct.block, ptr %25, i32 0, i32 0
  store ptr %24, ptr %26, align 8, !tbaa !4
  br label %27

27:                                               ; preds = %22, %16
  %28 = getelementptr inbounds nuw %struct.block, ptr %4, i32 0, i32 1
  %29 = load ptr, ptr %28, align 8, !tbaa !10
  %30 = load ptr, ptr %5, align 8, !tbaa !46
  %31 = getelementptr inbounds nuw %struct.block, ptr %30, i32 0, i32 1
  store ptr %29, ptr %31, align 8, !tbaa !10
  br label %32

32:                                               ; preds = %27, %3
  ret void
}

; Function Attrs: nounwind uwtable
define dso_local { ptr, ptr } @block_join(ptr %0, ptr %1, ptr %2, ptr %3) #0 {
  %5 = alloca %struct.block, align 8
  %6 = alloca %struct.block, align 8
  %7 = alloca %struct.block, align 8
  %8 = getelementptr inbounds nuw { ptr, ptr }, ptr %6, i32 0, i32 0
  store ptr %0, ptr %8, align 8
  %9 = getelementptr inbounds nuw { ptr, ptr }, ptr %6, i32 0, i32 1
  store ptr %1, ptr %9, align 8
  %10 = getelementptr inbounds nuw { ptr, ptr }, ptr %7, i32 0, i32 0
  store ptr %2, ptr %10, align 8
  %11 = getelementptr inbounds nuw { ptr, ptr }, ptr %7, i32 0, i32 1
  store ptr %3, ptr %11, align 8
  call void @llvm.memcpy.p0.p0.i64(ptr align 8 %5, ptr align 8 %6, i64 16, i1 false), !tbaa.struct !31
  %12 = getelementptr inbounds nuw { ptr, ptr }, ptr %7, i32 0, i32 0
  %13 = load ptr, ptr %12, align 8
  %14 = getelementptr inbounds nuw { ptr, ptr }, ptr %7, i32 0, i32 1
  %15 = load ptr, ptr %14, align 8
  call void @block_append(ptr noundef %5, ptr %13, ptr %15)
  %16 = load { ptr, ptr }, ptr %5, align 8
  ret { ptr, ptr } %16
}

; Function Attrs: nounwind uwtable
define internal i32 @block_bind_subblock(ptr %0, ptr %1, ptr %2, ptr %3, i32 noundef %4, i32 noundef %5) #0 {
  %7 = alloca %struct.block, align 8
  %8 = alloca %struct.block, align 8
  %9 = alloca i32, align 4
  %10 = alloca i32, align 4
  %11 = alloca i32, align 4
  %12 = getelementptr inbounds nuw { ptr, ptr }, ptr %7, i32 0, i32 0
  store ptr %0, ptr %12, align 8
  %13 = getelementptr inbounds nuw { ptr, ptr }, ptr %7, i32 0, i32 1
  store ptr %1, ptr %13, align 8
  %14 = getelementptr inbounds nuw { ptr, ptr }, ptr %8, i32 0, i32 0
  store ptr %2, ptr %14, align 8
  %15 = getelementptr inbounds nuw { ptr, ptr }, ptr %8, i32 0, i32 1
  store ptr %3, ptr %15, align 8
  store i32 %4, ptr %9, align 4, !tbaa !26
  store i32 %5, ptr %10, align 4, !tbaa !26
  call void @llvm.lifetime.start.p0(i64 4, ptr %11) #7
  %16 = load i32, ptr %9, align 4, !tbaa !26
  %17 = load i32, ptr %10, align 4, !tbaa !26
  %18 = getelementptr inbounds nuw { ptr, ptr }, ptr %7, i32 0, i32 0
  %19 = load ptr, ptr %18, align 8
  %20 = getelementptr inbounds nuw { ptr, ptr }, ptr %7, i32 0, i32 1
  %21 = load ptr, ptr %20, align 8
  %22 = getelementptr inbounds nuw { ptr, ptr }, ptr %8, i32 0, i32 0
  %23 = load ptr, ptr %22, align 8
  %24 = getelementptr inbounds nuw { ptr, ptr }, ptr %8, i32 0, i32 1
  %25 = load ptr, ptr %24, align 8
  %26 = call i32 @block_bind_subblock_inner(ptr noundef %11, ptr %19, ptr %21, ptr %23, ptr %25, i32 noundef %16, i32 noundef %17)
  call void @llvm.lifetime.end.p0(i64 4, ptr %11) #7
  ret i32 %26
}

; Function Attrs: nounwind uwtable
define internal { ptr, ptr } @inst_block(ptr noundef %0) #0 {
  %2 = alloca %struct.block, align 8
  %3 = alloca ptr, align 8
  store ptr %0, ptr %3, align 8, !tbaa !13
  %4 = getelementptr inbounds nuw %struct.block, ptr %2, i32 0, i32 0
  %5 = load ptr, ptr %3, align 8, !tbaa !13
  store ptr %5, ptr %4, align 8, !tbaa !4
  %6 = getelementptr inbounds nuw %struct.block, ptr %2, i32 0, i32 1
  %7 = load ptr, ptr %3, align 8, !tbaa !13
  store ptr %7, ptr %6, align 8, !tbaa !10
  %8 = load { ptr, ptr }, ptr %2, align 8
  ret { ptr, ptr } %8
}

; Function Attrs: nounwind uwtable
define internal ptr @block_take_last(ptr noundef %0) #0 {
  %2 = alloca ptr, align 8
  %3 = alloca ptr, align 8
  %4 = alloca ptr, align 8
  %5 = alloca i32, align 4
  store ptr %0, ptr %3, align 8, !tbaa !46
  call void @llvm.lifetime.start.p0(i64 8, ptr %4) #7
  %6 = load ptr, ptr %3, align 8, !tbaa !46
  %7 = getelementptr inbounds nuw %struct.block, ptr %6, i32 0, i32 1
  %8 = load ptr, ptr %7, align 8, !tbaa !10
  store ptr %8, ptr %4, align 8, !tbaa !13
  %9 = load ptr, ptr %4, align 8, !tbaa !13
  %10 = icmp eq ptr %9, null
  br i1 %10, label %11, label %12

11:                                               ; preds = %1
  store ptr null, ptr %2, align 8
  store i32 1, ptr %5, align 4
  br label %39

12:                                               ; preds = %1
  %13 = load ptr, ptr %4, align 8, !tbaa !13
  %14 = getelementptr inbounds nuw %struct.inst, ptr %13, i32 0, i32 1
  %15 = load ptr, ptr %14, align 8, !tbaa !32
  %16 = icmp ne ptr %15, null
  br i1 %16, label %17, label %32

17:                                               ; preds = %12
  %18 = load ptr, ptr %4, align 8, !tbaa !13
  %19 = getelementptr inbounds nuw %struct.inst, ptr %18, i32 0, i32 0
  %20 = load ptr, ptr %19, align 8, !tbaa !28
  %21 = load ptr, ptr %4, align 8, !tbaa !13
  %22 = getelementptr inbounds nuw %struct.inst, ptr %21, i32 0, i32 1
  %23 = load ptr, ptr %22, align 8, !tbaa !32
  %24 = getelementptr inbounds nuw %struct.inst, ptr %23, i32 0, i32 0
  store ptr %20, ptr %24, align 8, !tbaa !28
  %25 = load ptr, ptr %4, align 8, !tbaa !13
  %26 = getelementptr inbounds nuw %struct.inst, ptr %25, i32 0, i32 1
  %27 = load ptr, ptr %26, align 8, !tbaa !32
  %28 = load ptr, ptr %3, align 8, !tbaa !46
  %29 = getelementptr inbounds nuw %struct.block, ptr %28, i32 0, i32 1
  store ptr %27, ptr %29, align 8, !tbaa !10
  %30 = load ptr, ptr %4, align 8, !tbaa !13
  %31 = getelementptr inbounds nuw %struct.inst, ptr %30, i32 0, i32 1
  store ptr null, ptr %31, align 8, !tbaa !32
  br label %37

32:                                               ; preds = %12
  %33 = load ptr, ptr %3, align 8, !tbaa !46
  %34 = getelementptr inbounds nuw %struct.block, ptr %33, i32 0, i32 0
  store ptr null, ptr %34, align 8, !tbaa !4
  %35 = load ptr, ptr %3, align 8, !tbaa !46
  %36 = getelementptr inbounds nuw %struct.block, ptr %35, i32 0, i32 1
  store ptr null, ptr %36, align 8, !tbaa !10
  br label %37

37:                                               ; preds = %32, %17
  %38 = load ptr, ptr %4, align 8, !tbaa !13
  store ptr %38, ptr %2, align 8
  store i32 1, ptr %5, align 4
  br label %39

39:                                               ; preds = %37, %11
  call void @llvm.lifetime.end.p0(i64 8, ptr %4) #7
  %40 = load ptr, ptr %2, align 8
  ret ptr %40
}

; Function Attrs: nounwind uwtable
define dso_local { ptr, ptr } @gen_noop() #0 {
  %1 = alloca %struct.block, align 8
  call void @llvm.memset.p0.i64(ptr align 8 %1, i8 0, i64 16, i1 false)
  %2 = load { ptr, ptr }, ptr %1, align 8
  ret { ptr, ptr } %2
}

; Function Attrs: nounwind uwtable
define dso_local { ptr, ptr } @block_bind_self(ptr %0, ptr %1, i32 noundef %2) #0 {
  %4 = alloca %struct.block, align 8
  %5 = alloca %struct.block, align 8
  %6 = alloca i32, align 4
  %7 = alloca ptr, align 8
  %8 = alloca %struct.block, align 8
  %9 = alloca %struct.block, align 8
  %10 = getelementptr inbounds nuw { ptr, ptr }, ptr %5, i32 0, i32 0
  store ptr %0, ptr %10, align 8
  %11 = getelementptr inbounds nuw { ptr, ptr }, ptr %5, i32 0, i32 1
  store ptr %1, ptr %11, align 8
  store i32 %2, ptr %6, align 4, !tbaa !26
  %12 = load i32, ptr %6, align 4, !tbaa !26
  %13 = or i32 %12, 1024
  store i32 %13, ptr %6, align 4, !tbaa !26
  %14 = call { ptr, ptr } @gen_noop()
  %15 = getelementptr inbounds nuw { ptr, ptr }, ptr %4, i32 0, i32 0
  %16 = extractvalue { ptr, ptr } %14, 0
  store ptr %16, ptr %15, align 8
  %17 = getelementptr inbounds nuw { ptr, ptr }, ptr %4, i32 0, i32 1
  %18 = extractvalue { ptr, ptr } %14, 1
  store ptr %18, ptr %17, align 8
  call void @llvm.lifetime.start.p0(i64 8, ptr %7) #7
  br label %19

19:                                               ; preds = %22, %3
  %20 = call ptr @block_take_last(ptr noundef %5)
  store ptr %20, ptr %7, align 8, !tbaa !13
  %21 = icmp ne ptr %20, null
  br i1 %21, label %22, label %52

22:                                               ; preds = %19
  call void @llvm.lifetime.start.p0(i64 16, ptr %8) #7
  %23 = load ptr, ptr %7, align 8, !tbaa !13
  %24 = call { ptr, ptr } @inst_block(ptr noundef %23)
  %25 = getelementptr inbounds nuw { ptr, ptr }, ptr %8, i32 0, i32 0
  %26 = extractvalue { ptr, ptr } %24, 0
  store ptr %26, ptr %25, align 8
  %27 = getelementptr inbounds nuw { ptr, ptr }, ptr %8, i32 0, i32 1
  %28 = extractvalue { ptr, ptr } %24, 1
  store ptr %28, ptr %27, align 8
  %29 = load i32, ptr %6, align 4, !tbaa !26
  %30 = getelementptr inbounds nuw { ptr, ptr }, ptr %8, i32 0, i32 0
  %31 = load ptr, ptr %30, align 8
  %32 = getelementptr inbounds nuw { ptr, ptr }, ptr %8, i32 0, i32 1
  %33 = load ptr, ptr %32, align 8
  %34 = getelementptr inbounds nuw { ptr, ptr }, ptr %4, i32 0, i32 0
  %35 = load ptr, ptr %34, align 8
  %36 = getelementptr inbounds nuw { ptr, ptr }, ptr %4, i32 0, i32 1
  %37 = load ptr, ptr %36, align 8
  %38 = call i32 @block_bind_subblock(ptr %31, ptr %33, ptr %35, ptr %37, i32 noundef %29, i32 noundef 0)
  call void @llvm.lifetime.start.p0(i64 16, ptr %9) #7
  %39 = getelementptr inbounds nuw { ptr, ptr }, ptr %8, i32 0, i32 0
  %40 = load ptr, ptr %39, align 8
  %41 = getelementptr inbounds nuw { ptr, ptr }, ptr %8, i32 0, i32 1
  %42 = load ptr, ptr %41, align 8
  %43 = getelementptr inbounds nuw { ptr, ptr }, ptr %4, i32 0, i32 0
  %44 = load ptr, ptr %43, align 8
  %45 = getelementptr inbounds nuw { ptr, ptr }, ptr %4, i32 0, i32 1
  %46 = load ptr, ptr %45, align 8
  %47 = call { ptr, ptr } @block_join(ptr %40, ptr %42, ptr %44, ptr %46)
  %48 = getelementptr inbounds nuw { ptr, ptr }, ptr %9, i32 0, i32 0
  %49 = extractvalue { ptr, ptr } %47, 0
  store ptr %49, ptr %48, align 8
  %50 = getelementptr inbounds nuw { ptr, ptr }, ptr %9, i32 0, i32 1
  %51 = extractvalue { ptr, ptr } %47, 1
  store ptr %51, ptr %50, align 8
  call void @llvm.memcpy.p0.p0.i64(ptr align 8 %4, ptr align 8 %9, i64 16, i1 false), !tbaa.struct !31
  call void @llvm.lifetime.end.p0(i64 16, ptr %9) #7
  call void @llvm.lifetime.end.p0(i64 16, ptr %8) #7
  br label %19, !llvm.loop !55

52:                                               ; preds = %19
  call void @llvm.lifetime.end.p0(i64 8, ptr %7) #7
  %53 = load { ptr, ptr }, ptr %4, align 8
  ret { ptr, ptr } %53
}