; Function Attrs: nounwind uwtable
define dso_local { ptr, ptr } @block_bind_self(ptr readnone captures(none) %0, ptr %1, i32 noundef %2) local_unnamed_addr #1 {
  %4 = alloca i32, align 4
  %5 = or i32 %2, 1024
  %6 = icmp eq ptr %1, null
  br i1 %6, label %block_take_last.exit, label %.lr.ph

.lr.ph:                                           ; preds = %3, %block_join.exit
  %.sroa.57.017 = phi ptr [ %.sroa.3.0.i, %block_join.exit ], [ null, %3 ]
  %.sroa.05.016 = phi ptr [ %.sroa.2.015, %block_join.exit ], [ null, %3 ]
  %.sroa.2.015 = phi ptr [ %8, %block_join.exit ], [ %1, %3 ]
  %7 = getelementptr inbounds nuw i8, ptr %.sroa.2.015, i64 8
  %8 = load ptr, ptr %7, align 8, !tbaa !34
  %.not.i = icmp eq ptr %8, null
  br i1 %.not.i, label %11, label %9

9:                                                ; preds = %.lr.ph
  %10 = load ptr, ptr %.sroa.2.015, align 8, !tbaa !22
  store ptr %10, ptr %8, align 8, !tbaa !22
  store ptr null, ptr %7, align 8, !tbaa !34
  br label %11

11:                                               ; preds = %.lr.ph, %9
  call void @llvm.lifetime.start.p0(i64 4, ptr nonnull %4) #17
  %12 = call fastcc i32 @block_bind_subblock_inner(ptr noundef %4, ptr nonnull %.sroa.2.015, ptr %.sroa.05.016, i32 noundef range(i32 1024, 5) %5, i32 noundef 0)
  call void @llvm.lifetime.end.p0(i64 4, ptr nonnull %4) #17
  %.not.i.i = icmp eq ptr %.sroa.05.016, null
  br i1 %.not.i.i, label %block_join.exit, label %13

13:                                               ; preds = %11
  store ptr %.sroa.05.016, ptr %.sroa.2.015, align 8, !tbaa !22
  %14 = getelementptr inbounds nuw i8, ptr %.sroa.05.016, i64 8
  store ptr %.sroa.2.015, ptr %14, align 8, !tbaa !34
  br label %block_join.exit

block_join.exit:                                  ; preds = %11, %13
  %.sroa.3.0.i = phi ptr [ %.sroa.2.015, %11 ], [ %.sroa.57.017, %13 ]
  br i1 %.not.i, label %block_take_last.exit, label %.lr.ph, !llvm.loop !44

block_take_last.exit:                             ; preds = %block_join.exit, %3
  %.sroa.05.0.lcssa = phi ptr [ null, %3 ], [ %.sroa.2.015, %block_join.exit ]
  %.sroa.57.0.lcssa = phi ptr [ null, %3 ], [ %.sroa.3.0.i, %block_join.exit ]
  %.fca.0.insert = insertvalue { ptr, ptr } poison, ptr %.sroa.05.0.lcssa, 0
  %.fca.1.insert = insertvalue { ptr, ptr } %.fca.0.insert, ptr %.sroa.57.0.lcssa, 1
  ret { ptr, ptr } %.fca.1.insert
}